#include <math.h>
#include <stdio.h>
#include <stdlib.h>
#include <string.h>

struct stu
{
	char xh[20],mz[20],xb,dz[20],df[20];
	int nl;
};
int main()
{
	struct stu a[10000];
	int n=0,i;
	char str[4]="end",c;
	scanf("%s",a[0].xh);
	while(strcmp(a[n].xh,str)!=0)
	{
		scanf("%s",a[n].mz);
		c=getchar();
		scanf("%c",&a[n].xb);
		scanf("%d",&a[n].nl);
		scanf("%s",&a[n].df);
		c=getchar();
		scanf("%s",a[n].dz);
		c=getchar();
		n++;
		scanf("%s",a[n].xh);
		c=getchar();
	}
	for(i=n-1;i>=0;i--)
	printf("%s %s %c %d %s %s\n",a[i].xh,a[i].mz,a[i].xb,a[i].nl,a[i].df,a[i].dz);
	return 0;
}